; ModuleID = '6/91.c'
source_filename = "6/91.c"
target datalayout = "e-m:e-p270:32:32-p271:32:32-p272:64:64-i64:64-f80:128-n8:16:32:64-S128"
target triple = "x86_64-pc-linux-gnu"

@.str = private unnamed_addr constant [4 x i8] c"%d\0A\00", align 1
@.str.1 = private unnamed_addr constant [6 x i8] c"%d %d\00", align 1
@.str.2 = private unnamed_addr constant [3 x i8] c"%d\00", align 1

; Function Attrs: noinline nounwind uwtable
define dso_local void @main() #0 {
  %1 = alloca i32, align 4
  %2 = alloca i32, align 4
  %3 = alloca i32, align 4
  %4 = alloca i32*, align 8
  %5 = alloca [100 x i32]*, align 8
  %6 = alloca i32, align 4
  %7 = alloca i32, align 4
  %8 = alloca i32, align 4
  %9 = alloca i32, align 4
  %10 = alloca i32, align 4
  store i32 0, i32* %6, align 4
  %11 = call noalias i8* @malloc(i64 40000) #3
  %12 = bitcast i8* %11 to [100 x i32]*
  store [100 x i32]* %12, [100 x i32]** %5, align 8
  %13 = call noalias i8* @malloc(i64 400) #3
  %14 = bitcast i8* %13 to i32*
  store i32* %14, i32** %4, align 8
  %15 = call i32 (i8*, ...) @__isoc99_scanf(i8* getelementptr inbounds ([4 x i8], [4 x i8]* @.str, i64 0, i64 0), i32* %1)
  store i32 0, i32* %7, align 4
  br label %16

16:                                               ; preds = %162, %0
  %17 = load i32, i32* %7, align 4
  %18 = load i32, i32* %1, align 4
  %19 = icmp slt i32 %17, %18
  br i1 %19, label %20, label %165

20:                                               ; preds = %16
  %21 = call i32 (i8*, ...) @__isoc99_scanf(i8* getelementptr inbounds ([6 x i8], [6 x i8]* @.str.1, i64 0, i64 0), i32* %2, i32* %3)
  store i32 0, i32* %8, align 4
  br label %22

22:                                               ; preds = %45, %20
  %23 = load i32, i32* %8, align 4
  %24 = load i32, i32* %2, align 4
  %25 = icmp slt i32 %23, %24
  br i1 %25, label %26, label %48

26:                                               ; preds = %22
  store i32 0, i32* %9, align 4
  br label %27

27:                                               ; preds = %41, %26
  %28 = load i32, i32* %9, align 4
  %29 = load i32, i32* %3, align 4
  %30 = icmp slt i32 %28, %29
  br i1 %30, label %31, label %44

31:                                               ; preds = %27
  %32 = load [100 x i32]*, [100 x i32]** %5, align 8
  %33 = load i32, i32* %8, align 4
  %34 = sext i32 %33 to i64
  %35 = getelementptr inbounds [100 x i32], [100 x i32]* %32, i64 %34
  %36 = getelementptr inbounds [100 x i32], [100 x i32]* %35, i64 0, i64 0
  %37 = load i32, i32* %9, align 4
  %38 = sext i32 %37 to i64
  %39 = getelementptr inbounds i32, i32* %36, i64 %38
  %40 = call i32 (i8*, ...) @__isoc99_scanf(i8* getelementptr inbounds ([3 x i8], [3 x i8]* @.str.2, i64 0, i64 0), i32* %39)
  br label %41

41:                                               ; preds = %31
  %42 = load i32, i32* %9, align 4
  %43 = add nsw i32 %42, 1
  store i32 %43, i32* %9, align 4
  br label %27

44:                                               ; preds = %27
  br label %45

45:                                               ; preds = %44
  %46 = load i32, i32* %8, align 4
  %47 = add nsw i32 %46, 1
  store i32 %47, i32* %8, align 4
  br label %22

48:                                               ; preds = %22
  store i32 0, i32* %10, align 4
  br label %49

49:                                               ; preds = %81, %48
  %50 = load i32, i32* %10, align 4
  %51 = load i32, i32* %3, align 4
  %52 = icmp slt i32 %50, %51
  br i1 %52, label %53, label %84

53:                                               ; preds = %49
  %54 = load i32*, i32** %4, align 8
  %55 = load i32, i32* %7, align 4
  %56 = sext i32 %55 to i64
  %57 = getelementptr inbounds i32, i32* %54, i64 %56
  %58 = load i32, i32* %57, align 4
  %59 = load [100 x i32]*, [100 x i32]** %5, align 8
  %60 = getelementptr inbounds [100 x i32], [100 x i32]* %59, i64 0, i64 0
  %61 = load i32, i32* %10, align 4
  %62 = sext i32 %61 to i64
  %63 = getelementptr inbounds i32, i32* %60, i64 %62
  %64 = load i32, i32* %63, align 4
  %65 = add nsw i32 %58, %64
  %66 = load [100 x i32]*, [100 x i32]** %5, align 8
  %67 = load i32, i32* %2, align 4
  %68 = sext i32 %67 to i64
  %69 = getelementptr inbounds [100 x i32], [100 x i32]* %66, i64 %68
  %70 = getelementptr inbounds [100 x i32], [100 x i32]* %69, i64 -1
  %71 = getelementptr inbounds [100 x i32], [100 x i32]* %70, i64 0, i64 0
  %72 = load i32, i32* %10, align 4
  %73 = sext i32 %72 to i64
  %74 = getelementptr inbounds i32, i32* %71, i64 %73
  %75 = load i32, i32* %74, align 4
  %76 = add nsw i32 %65, %75
  %77 = load i32*, i32** %4, align 8
  %78 = load i32, i32* %7, align 4
  %79 = sext i32 %78 to i64
  %80 = getelementptr inbounds i32, i32* %77, i64 %79
  store i32 %76, i32* %80, align 4
  br label %81

81:                                               ; preds = %53
  %82 = load i32, i32* %10, align 4
  %83 = add nsw i32 %82, 1
  store i32 %83, i32* %10, align 4
  br label %49

84:                                               ; preds = %49
  store i32 0, i32* %10, align 4
  br label %85

85:                                               ; preds = %117, %84
  %86 = load i32, i32* %10, align 4
  %87 = load i32, i32* %2, align 4
  %88 = icmp slt i32 %86, %87
  br i1 %88, label %89, label %120

89:                                               ; preds = %85
  %90 = load i32*, i32** %4, align 8
  %91 = load i32, i32* %7, align 4
  %92 = sext i32 %91 to i64
  %93 = getelementptr inbounds i32, i32* %90, i64 %92
  %94 = load i32, i32* %93, align 4
  %95 = load [100 x i32]*, [100 x i32]** %5, align 8
  %96 = load i32, i32* %10, align 4
  %97 = sext i32 %96 to i64
  %98 = getelementptr inbounds [100 x i32], [100 x i32]* %95, i64 %97
  %99 = getelementptr inbounds [100 x i32], [100 x i32]* %98, i64 0, i64 0
  %100 = load i32, i32* %99, align 4
  %101 = add nsw i32 %94, %100
  %102 = load [100 x i32]*, [100 x i32]** %5, align 8
  %103 = load i32, i32* %10, align 4
  %104 = sext i32 %103 to i64
  %105 = getelementptr inbounds [100 x i32], [100 x i32]* %102, i64 %104
  %106 = getelementptr inbounds [100 x i32], [100 x i32]* %105, i64 0, i64 0
  %107 = load i32, i32* %3, align 4
  %108 = sext i32 %107 to i64
  %109 = getelementptr inbounds i32, i32* %106, i64 %108
  %110 = getelementptr inbounds i32, i32* %109, i64 -1
  %111 = load i32, i32* %110, align 4
  %112 = add nsw i32 %101, %111
  %113 = load i32*, i32** %4, align 8
  %114 = load i32, i32* %7, align 4
  %115 = sext i32 %114 to i64
  %116 = getelementptr inbounds i32, i32* %113, i64 %115
  store i32 %112, i32* %116, align 4
  br label %117

117:                                              ; preds = %89
  %118 = load i32, i32* %10, align 4
  %119 = add nsw i32 %118, 1
  store i32 %119, i32* %10, align 4
  br label %85

120:                                              ; preds = %85
  %121 = load i32*, i32** %4, align 8
  %122 = load i32, i32* %7, align 4
  %123 = sext i32 %122 to i64
  %124 = getelementptr inbounds i32, i32* %121, i64 %123
  %125 = load i32, i32* %124, align 4
  %126 = load [100 x i32]*, [100 x i32]** %5, align 8
  %127 = getelementptr inbounds [100 x i32], [100 x i32]* %126, i64 0, i64 0
  %128 = load i32, i32* %127, align 4
  %129 = sub nsw i32 %125, %128
  %130 = load [100 x i32]*, [100 x i32]** %5, align 8
  %131 = getelementptr inbounds [100 x i32], [100 x i32]* %130, i64 0, i64 0
  %132 = load i32, i32* %3, align 4
  %133 = sext i32 %132 to i64
  %134 = getelementptr inbounds i32, i32* %131, i64 %133
  %135 = getelementptr inbounds i32, i32* %134, i64 -1
  %136 = load i32, i32* %135, align 4
  %137 = sub nsw i32 %129, %136
  %138 = load [100 x i32]*, [100 x i32]** %5, align 8
  %139 = load i32, i32* %2, align 4
  %140 = sext i32 %139 to i64
  %141 = getelementptr inbounds [100 x i32], [100 x i32]* %138, i64 %140
  %142 = getelementptr inbounds [100 x i32], [100 x i32]* %141, i64 -1
  %143 = getelementptr inbounds [100 x i32], [100 x i32]* %142, i64 0, i64 0
  %144 = load i32, i32* %143, align 4
  %145 = sub nsw i32 %137, %144
  %146 = load [100 x i32]*, [100 x i32]** %5, align 8
  %147 = load i32, i32* %2, align 4
  %148 = sext i32 %147 to i64
  %149 = getelementptr inbounds [100 x i32], [100 x i32]* %146, i64 %148
  %150 = getelementptr inbounds [100 x i32], [100 x i32]* %149, i64 -1
  %151 = getelementptr inbounds [100 x i32], [100 x i32]* %150, i64 0, i64 0
  %152 = load i32, i32* %3, align 4
  %153 = sext i32 %152 to i64
  %154 = getelementptr inbounds i32, i32* %151, i64 %153
  %155 = getelementptr inbounds i32, i32* %154, i64 -1
  %156 = load i32, i32* %155, align 4
  %157 = sub nsw i32 %145, %156
  %158 = load i32*, i32** %4, align 8
  %159 = load i32, i32* %7, align 4
  %160 = sext i32 %159 to i64
  %161 = getelementptr inbounds i32, i32* %158, i64 %160
  store i32 %157, i32* %161, align 4
  br label %162

162:                                              ; preds = %120
  %163 = load i32, i32* %7, align 4
  %164 = add nsw i32 %163, 1
  store i32 %164, i32* %7, align 4
  br label %16

165:                                              ; preds = %16
  store i32 0, i32* %7, align 4
  br label %166

166:                                              ; preds = %177, %165
  %167 = load i32, i32* %7, align 4
  %168 = load i32, i32* %1, align 4
  %169 = icmp slt i32 %167, %168
  br i1 %169, label %170, label %180

170:                                              ; preds = %166
  %171 = load i32*, i32** %4, align 8
  %172 = load i32, i32* %7, align 4
  %173 = sext i32 %172 to i64
  %174 = getelementptr inbounds i32, i32* %171, i64 %173
  %175 = load i32, i32* %174, align 4
  %176 = call i32 (i8*, ...) @printf(i8* getelementptr inbounds ([4 x i8], [4 x i8]* @.str, i64 0, i64 0), i32 %175)
  br label %177

177:                                              ; preds = %170
  %178 = load i32, i32* %7, align 4
  %179 = add nsw i32 %178, 1
  store i32 %179, i32* %7, align 4
  br label %166

180:                                              ; preds = %166
  ret void
}

; Function Attrs: nounwind
declare dso_local noalias i8* @malloc(i64) #1

declare dso_local i32 @__isoc99_scanf(i8*, ...) #2

declare dso_local i32 @printf(i8*, ...) #2


!llvm.module.flags = !{!0}
!llvm.ident = !{!1}

!0 = !{i32 1, !"wchar_size", i32 4}
!1 = !{!"clang version 10.0.0-4ubuntu1 "}
